; Function Attrs: mustprogress nounwind uwtable
define dso_local void @_ZN4llvm29BlockFrequencyInfoWrapperPass13releaseMemoryEv(ptr nocapture noundef nonnull align 8 dereferenceable(40) %0) unnamed_addr #0 align 2 {
  %2 = getelementptr inbounds nuw i8, ptr %0, i64 32
  %3 = load ptr, ptr %2, align 8
  store ptr null, ptr %2, align 8
  %.not.i.i.i = icmp eq ptr %3, null
  br i1 %.not.i.i.i, label %_ZN4llvm18BlockFrequencyInfo13releaseMemoryEv.exit, label %_ZNKSt14default_deleteIN4llvm22BlockFrequencyInfoImplINS0_10BasicBlockEEEEclEPS3_.exit.i.i.i

_ZNKSt14default_deleteIN4llvm22BlockFrequencyInfoImplINS0_10BasicBlockEEEEclEPS3_.exit.i.i.i: ; preds = %1
  %4 = load ptr, ptr %3, align 8
  %5 = getelementptr inbounds i8, ptr %4, i64 8
  %6 = load ptr, ptr %5, align 8
  tail call void %6(ptr noundef nonnull align 8 dereferenceable(184) %3) #23
  br label %_ZN4llvm18BlockFrequencyInfo13releaseMemoryEv.exit

_ZN4llvm18BlockFrequencyInfo13releaseMemoryEv.exit: ; preds = %1, %_ZNKSt14default_deleteIN4llvm22BlockFrequencyInfoImplINS0_10BasicBlockEEEEclEPS3_.exit.i.i.i
  ret void
}